gpasm-1.4.0 #1107 (Nov  3 2014) pic18f26k80.a   11-6-2014  18:33:50         PAGE  1


LOC    OBJECT CODE    LINE  SOURCE TEXT
  VALUE

                      00001 ;------------------------------------------------------------------------------
                      00002 ;
                      00003 ; Title:        LED demo for The Wellington Boot Loader for PIC18
                      00004 ;
                      00005 ; Copyright:    Copyright (c) 2014 The Duke of Welling Town
                      00006 ;
                      00007 ;------------------------------------------------------------------------------
                      00008 
                      00009 ;------------------------------------------------------------------------------
                      00010 ;   This file is part of The Wellington Boot Loader.
                      00011 ;
                      00012 ;   The Wellington Boot Loader is free software: you can redistribute it and/or
                      00013 ;   modify it under the terms of the GNU General Public License as published
                      00014 ;   by the Free Software Foundation.
                      00015 ;
                      00016 ;   The Wellington Boot Loader is distributed in the hope that it will be
                      00017 ;   useful, but WITHOUT ANY WARRANTY; without even the implied warranty of
                      00018 ;   MERCHANTABILITY or FITNESS FOR A PARTICULAR PURPOSE. See the
                      00019 ;   GNU General Public License for more details.
                      00020 ;
                      00021 ;   You should have received a copy of the GNU General Public License along
                      00022 ;   with The Wellington Boot Loader. If not, see http://www.gnu.org/licenses/
                      00023 ;
                      00024 ;------------------------------------------------------------------------------
                      00025 
                      00026                 RADIX   DEC
                      00027 
                      00028 ;------------------------------------------------------------------------------
                      00029 ;
                      00030 ; LED demonstration for The Wellington Boot Loader.
                      00031 ;
                      00032 ;------------------------------------------------------------------------------
                      00033 ;
                      00034                 LIST    P=PIC18F26K80
                      00035 ERRORLEVEL      -302
                      00036 INCLUDE         "p18f26k80.inc"
                      00001         LIST
                      00002 
                      00003 ;==========================================================================
                      00004 ; Build date : Aug 07 2014
                      00005 ;  MPASM PIC18F26K80 processor include
                      00006 ; 
                      00007 ;  (c) Copyright 1999-2014 Microchip Technology, All rights reserved
                      00008 ;==========================================================================
                      00009 
                      05364         LIST
                      00037 ;
                      00038 ;------------------------------------------------------------------------------
                      00039 ;
                      00040 ; Data EEPROM
                      00041 ;
F00000                00042                 ORG     0xF00000
F00000 50 49 43 31 38 00043                 DE      "PIC18F26K80",0,0xFF
gpasm-1.4.0 #1107 (Nov  3 2014) pic18f26k80.a   11-6-2014  18:33:50         PAGE  2


LOC    OBJECT CODE    LINE  SOURCE TEXT
  VALUE

       46 32 36 4B 38 
       30 00 FF       
                      00044 ;
                      00045 ;------------------------------------------------------------------------------
                      00046 ;
                      00047 ; Variables
                      00048 ;
                      00049 CBLOCK          0
  00000000            00050                 Delay1 : 1
  00000001            00051                 Delay2 : 1
  00000002            00052                 Delay3 : 1
                      00053 ENDC
                      00054 ;
                      00055 ;------------------------------------------------------------------------------
                      00056 ;
                      00057 ; Reset
                      00058 ;
000000                00059                 ORG     0
000000 EF02 F000      00060                 GOTO    INIT
                      00061 ;
                      00062 ;------------------------------------------------------------------------------
                      00063 ;
                      00064 ; Init.
                      00065 ;
Message[1301]: Using default destination of 0 (Access Bank).
000004 6889           00066 INIT            SETF    LATA
000006 9092           00067                 BCF     TRISA,0             ;RA0 O/P
                      00068 ;
                      00069 ;------------------------------------------------------------------------------
                      00070 ;
                      00071 ; Toggle LED
                      00072 ;
000008 7089           00073 LOOP            BTG     LATA,0
                      00074 
00000A 0E04           00075                 MOVLW   4
Message[1301]: Using default destination of 0 (Access Bank).
00000C 6E00           00076                 MOVWF   Delay1
Message[1301]: Using default destination of 0 (Access Bank).
00000E 6A01           00077                 CLRF    Delay2
Message[1301]: Using default destination of 0 (Access Bank).
000010 6A02           00078                 CLRF    Delay3
                      00079 
Message[305]: Using default destination of 1 (file).
000012 2E02           00080 DELAY           DECFSZ  Delay3
000014 D7FE           00081                 BRA     DELAY 
Message[305]: Using default destination of 1 (file).
000016 2E01           00082                 DECFSZ  Delay2
000018 D7FC           00083                 BRA     DELAY
Message[305]: Using default destination of 1 (file).
00001A 2E00           00084                 DECFSZ  Delay1
00001C D7FA           00085                 BRA     DELAY
                      00086 
00001E D7F4           00087                 BRA     LOOP
gpasm-1.4.0 #1107 (Nov  3 2014) pic18f26k80.a   11-6-2014  18:33:50         PAGE  3


LOC    OBJECT CODE    LINE  SOURCE TEXT
  VALUE

                      00088 ;
                      00089 ;------------------------------------------------------------------------------
                      00090                 END
gpasm-1.4.0 #1107 (Nov  3 2014) pic18f26k80.a   11-6-2014  18:33:50         PAGE  4


SYMBOL TABLE
  LABEL                             VALUE

A                                 00000000
ABAT                              00000004
ABDEN                             00000000
ABDOVF                            00000007
ACCESS                            00000000
ACKDT                             00000005
ACKEN                             00000004
ACKSTAT                           00000006
ACQT0                             00000003
ACQT1                             00000004
ACQT2                             00000005
ADCMD                             00000005
ADCON0                            00000FC2
ADCON1                            00000FC1
ADCON2                            00000FC0
ADCS0                             00000000
ADCS1                             00000001
ADCS2                             00000002
ADDEN                             00000003
ADDEN1                            00000003
ADDEN2                            00000003
ADEN                              00000003
ADFM                              00000007
ADIE                              00000006
ADIF                              00000006
ADIP                              00000006
ADMSK1                            00000001
ADMSK2                            00000002
ADMSK3                            00000003
ADMSK4                            00000004
ADMSK5                            00000005
ADON                              00000000
ADRES                             00000FC3
ADRESH                            00000FC4
ADRESL                            00000FC3
ANCON0                            00000F5D
ANCON1                            00000F5C
ANSEL0                            00000000
ANSEL1                            00000001
ANSEL10                           00000002
ANSEL2                            00000002
ANSEL3                            00000003
ANSEL4                            00000004
ANSEL8                            00000000
ANSEL9                            00000001
B0CON                             00000E80
B0D0                              00000E86
B0D00                             00000000
B0D01                             00000001
B0D02                             00000002
B0D03                             00000003
B0D04                             00000004
B0D05                             00000005
gpasm-1.4.0 #1107 (Nov  3 2014) pic18f26k80.a   11-6-2014  18:33:50         PAGE  5


SYMBOL TABLE
  LABEL                             VALUE 

B0D06                             00000006
B0D07                             00000007
B0D1                              00000E87
B0D10                             00000000
B0D11                             00000001
B0D12                             00000002
B0D13                             00000003
B0D14                             00000004
B0D15                             00000005
B0D16                             00000006
B0D17                             00000007
B0D2                              00000E88
B0D20                             00000000
B0D21                             00000001
B0D22                             00000002
B0D23                             00000003
B0D24                             00000004
B0D25                             00000005
B0D26                             00000006
B0D27                             00000007
B0D3                              00000E89
B0D30                             00000000
B0D31                             00000001
B0D32                             00000002
B0D33                             00000003
B0D34                             00000004
B0D35                             00000005
B0D36                             00000006
B0D37                             00000007
B0D4                              00000E8A
B0D40                             00000000
B0D41                             00000001
B0D42                             00000002
B0D43                             00000003
B0D44                             00000004
B0D45                             00000005
B0D46                             00000006
B0D47                             00000007
B0D5                              00000E8B
B0D50                             00000000
B0D51                             00000001
B0D52                             00000002
B0D53                             00000003
B0D54                             00000004
B0D55                             00000005
B0D56                             00000006
B0D57                             00000007
B0D6                              00000E8C
B0D60                             00000000
B0D61                             00000001
B0D62                             00000002
B0D63                             00000003
B0D64                             00000004
gpasm-1.4.0 #1107 (Nov  3 2014) pic18f26k80.a   11-6-2014  18:33:50         PAGE  6


SYMBOL TABLE
  LABEL                             VALUE 

B0D65                             00000005
B0D66                             00000006
B0D67                             00000007
B0D7                              00000E8D
B0D70                             00000000
B0D71                             00000001
B0D72                             00000002
B0D73                             00000003
B0D74                             00000004
B0D75                             00000005
B0D76                             00000006
B0D77                             00000007
B0DLC                             00000E85
B0EIDH                            00000E83
B0EIDL                            00000E84
B0IE                              00000002
B0SIDH                            00000E81
B0SIDL                            00000E82
B0TXEN                            00000002
B1CON                             00000E90
B1D0                              00000E96
B1D00                             00000000
B1D01                             00000001
B1D02                             00000002
B1D03                             00000003
B1D04                             00000004
B1D05                             00000005
B1D06                             00000006
B1D07                             00000007
B1D1                              00000E97
B1D10                             00000000
B1D11                             00000001
B1D12                             00000002
B1D13                             00000003
B1D14                             00000004
B1D15                             00000005
B1D16                             00000006
B1D17                             00000007
B1D2                              00000E98
B1D20                             00000000
B1D21                             00000001
B1D22                             00000002
B1D23                             00000003
B1D24                             00000004
B1D25                             00000005
B1D26                             00000006
B1D27                             00000007
B1D3                              00000E99
B1D30                             00000000
B1D31                             00000001
B1D32                             00000002
B1D33                             00000003
B1D34                             00000004
gpasm-1.4.0 #1107 (Nov  3 2014) pic18f26k80.a   11-6-2014  18:33:50         PAGE  7


SYMBOL TABLE
  LABEL                             VALUE 

B1D35                             00000005
B1D36                             00000006
B1D37                             00000007
B1D4                              00000E9A
B1D40                             00000000
B1D41                             00000001
B1D42                             00000002
B1D43                             00000003
B1D44                             00000004
B1D45                             00000005
B1D46                             00000006
B1D47                             00000007
B1D5                              00000E9B
B1D50                             00000000
B1D51                             00000001
B1D52                             00000002
B1D53                             00000003
B1D54                             00000004
B1D55                             00000005
B1D56                             00000006
B1D57                             00000007
B1D6                              00000E9C
B1D60                             00000000
B1D61                             00000001
B1D62                             00000002
B1D63                             00000003
B1D64                             00000004
B1D65                             00000005
B1D66                             00000006
B1D67                             00000007
B1D7                              00000E9D
B1D70                             00000000
B1D71                             00000001
B1D72                             00000002
B1D73                             00000003
B1D74                             00000004
B1D75                             00000005
B1D76                             00000006
B1D77                             00000007
B1DLC                             00000E95
B1EIDH                            00000E93
B1EIDL                            00000E94
B1IE                              00000003
B1SIDH                            00000E91
B1SIDL                            00000E92
B1TXEN                            00000003
B2CON                             00000EA0
B2D0                              00000EA6
B2D00                             00000000
B2D01                             00000001
B2D02                             00000002
B2D03                             00000003
B2D04                             00000004
gpasm-1.4.0 #1107 (Nov  3 2014) pic18f26k80.a   11-6-2014  18:33:50         PAGE  8


SYMBOL TABLE
  LABEL                             VALUE 

B2D05                             00000005
B2D06                             00000006
B2D07                             00000007
B2D1                              00000EA7
B2D10                             00000000
B2D11                             00000001
B2D12                             00000002
B2D13                             00000003
B2D14                             00000004
B2D15                             00000005
B2D16                             00000006
B2D17                             00000007
B2D2                              00000EA8
B2D20                             00000000
B2D21                             00000001
B2D22                             00000002
B2D23                             00000003
B2D24                             00000004
B2D25                             00000005
B2D26                             00000006
B2D27                             00000007
B2D3                              00000EA9
B2D30                             00000000
B2D31                             00000001
B2D32                             00000002
B2D33                             00000003
B2D34                             00000004
B2D35                             00000005
B2D36                             00000006
B2D37                             00000007
B2D4                              00000EAA
B2D40                             00000000
B2D41                             00000001
B2D42                             00000002
B2D43                             00000003
B2D44                             00000004
B2D45                             00000005
B2D46                             00000006
B2D47                             00000007
B2D5                              00000EAB
B2D50                             00000000
B2D51                             00000001
B2D52                             00000002
B2D53                             00000003
B2D54                             00000004
B2D55                             00000005
B2D56                             00000006
B2D57                             00000007
B2D6                              00000EAC
B2D60                             00000000
B2D61                             00000001
B2D62                             00000002
B2D63                             00000003
gpasm-1.4.0 #1107 (Nov  3 2014) pic18f26k80.a   11-6-2014  18:33:50         PAGE  9


SYMBOL TABLE
  LABEL                             VALUE 

B2D64                             00000004
B2D65                             00000005
B2D66                             00000006
B2D67                             00000007
B2D7                              00000EAD
B2D70                             00000000
B2D71                             00000001
B2D72                             00000002
B2D73                             00000003
B2D74                             00000004
B2D75                             00000005
B2D76                             00000006
B2D77                             00000007
B2DLC                             00000EA5
B2EIDH                            00000EA3
B2EIDL                            00000EA4
B2IE                              00000004
B2SIDH                            00000EA1
B2SIDL                            00000EA2
B2TXEN                            00000004
B3CON                             00000EB0
B3D0                              00000EB6
B3D00                             00000000
B3D01                             00000001
B3D02                             00000002
B3D03                             00000003
B3D04                             00000004
B3D05                             00000005
B3D06                             00000006
B3D07                             00000007
B3D1                              00000EB7
B3D10                             00000000
B3D11                             00000001
B3D12                             00000002
B3D13                             00000003
B3D14                             00000004
B3D15                             00000005
B3D16                             00000006
B3D17                             00000007
B3D2                              00000EB8
B3D20                             00000000
B3D21                             00000001
B3D22                             00000002
B3D23                             00000003
B3D24                             00000004
B3D25                             00000005
B3D26                             00000006
B3D27                             00000007
B3D3                              00000EB9
B3D30                             00000000
B3D31                             00000001
B3D32                             00000002
B3D33                             00000003
gpasm-1.4.0 #1107 (Nov  3 2014) pic18f26k80.a   11-6-2014  18:33:50         PAGE 10


SYMBOL TABLE
  LABEL                             VALUE 

B3D34                             00000004
B3D35                             00000005
B3D36                             00000006
B3D37                             00000007
B3D4                              00000EBA
B3D40                             00000000
B3D41                             00000001
B3D42                             00000002
B3D43                             00000003
B3D44                             00000004
B3D45                             00000005
B3D46                             00000006
B3D47                             00000007
B3D5                              00000EBB
B3D50                             00000000
B3D51                             00000001
B3D52                             00000002
B3D53                             00000003
B3D54                             00000004
B3D55                             00000005
B3D56                             00000006
B3D57                             00000007
B3D6                              00000EBC
B3D60                             00000000
B3D61                             00000001
B3D62                             00000002
B3D63                             00000003
B3D64                             00000004
B3D65                             00000005
B3D66                             00000006
B3D67                             00000007
B3D7                              00000EBD
B3D70                             00000000
B3D71                             00000001
B3D72                             00000002
B3D73                             00000003
B3D74                             00000004
B3D75                             00000005
B3D76                             00000006
B3D77                             00000007
B3DLC                             00000EB5
B3EIDH                            00000EB3
B3EIDL                            00000EB4
B3IE                              00000005
B3SIDH                            00000EB1
B3SIDL                            00000EB2
B3TXEN                            00000005
B4CON                             00000EC0
B4D0                              00000EC6
B4D00                             00000000
B4D01                             00000001
B4D02                             00000002
B4D03                             00000003
gpasm-1.4.0 #1107 (Nov  3 2014) pic18f26k80.a   11-6-2014  18:33:50         PAGE 11


SYMBOL TABLE
  LABEL                             VALUE 

B4D04                             00000004
B4D05                             00000005
B4D06                             00000006
B4D07                             00000007
B4D1                              00000EC7
B4D10                             00000000
B4D11                             00000001
B4D12                             00000002
B4D13                             00000003
B4D14                             00000004
B4D15                             00000005
B4D16                             00000006
B4D17                             00000007
B4D2                              00000EC8
B4D20                             00000000
B4D21                             00000001
B4D22                             00000002
B4D23                             00000003
B4D24                             00000004
B4D25                             00000005
B4D26                             00000006
B4D27                             00000007
B4D3                              00000EC9
B4D30                             00000000
B4D31                             00000001
B4D32                             00000002
B4D33                             00000003
B4D34                             00000004
B4D35                             00000005
B4D36                             00000006
B4D37                             00000007
B4D4                              00000ECA
B4D40                             00000000
B4D41                             00000001
B4D42                             00000002
B4D43                             00000003
B4D44                             00000004
B4D45                             00000005
B4D46                             00000006
B4D47                             00000007
B4D5                              00000ECB
B4D50                             00000000
B4D51                             00000001
B4D52                             00000002
B4D53                             00000003
B4D54                             00000004
B4D55                             00000005
B4D56                             00000006
B4D57                             00000007
B4D6                              00000ECC
B4D60                             00000000
B4D61                             00000001
B4D62                             00000002
gpasm-1.4.0 #1107 (Nov  3 2014) pic18f26k80.a   11-6-2014  18:33:50         PAGE 12


SYMBOL TABLE
  LABEL                             VALUE 

B4D63                             00000003
B4D64                             00000004
B4D65                             00000005
B4D66                             00000006
B4D67                             00000007
B4D7                              00000ECD
B4D70                             00000000
B4D71                             00000001
B4D72                             00000002
B4D73                             00000003
B4D74                             00000004
B4D75                             00000005
B4D76                             00000006
B4D77                             00000007
B4DLC                             00000EC5
B4EIDH                            00000EC3
B4EIDL                            00000EC4
B4IE                              00000006
B4SIDH                            00000EC1
B4SIDL                            00000EC2
B4TXEN                            00000006
B5CON                             00000ED0
B5D0                              00000ED6
B5D00                             00000000
B5D01                             00000001
B5D02                             00000002
B5D03                             00000003
B5D04                             00000004
B5D05                             00000005
B5D06                             00000006
B5D07                             00000007
B5D1                              00000ED7
B5D10                             00000000
B5D11                             00000001
B5D12                             00000002
B5D13                             00000003
B5D14                             00000004
B5D15                             00000005
B5D16                             00000006
B5D17                             00000007
B5D2                              00000ED8
B5D20                             00000000
B5D21                             00000001
B5D22                             00000002
B5D23                             00000003
B5D24                             00000004
B5D25                             00000005
B5D26                             00000006
B5D27                             00000007
B5D3                              00000ED9
B5D30                             00000000
B5D31                             00000001
B5D32                             00000002
gpasm-1.4.0 #1107 (Nov  3 2014) pic18f26k80.a   11-6-2014  18:33:50         PAGE 13


SYMBOL TABLE
  LABEL                             VALUE 

B5D33                             00000003
B5D34                             00000004
B5D35                             00000005
B5D36                             00000006
B5D37                             00000007
B5D4                              00000EDA
B5D40                             00000000
B5D41                             00000001
B5D42                             00000002
B5D43                             00000003
B5D44                             00000004
B5D45                             00000005
B5D46                             00000006
B5D47                             00000007
B5D5                              00000EDB
B5D50                             00000000
B5D51                             00000001
B5D52                             00000002
B5D53                             00000003
B5D54                             00000004
B5D55                             00000005
B5D56                             00000006
B5D57                             00000007
B5D6                              00000EDC
B5D60                             00000000
B5D61                             00000001
B5D62                             00000002
B5D63                             00000003
B5D64                             00000004
B5D65                             00000005
B5D66                             00000006
B5D67                             00000007
B5D7                              00000EDD
B5D70                             00000000
B5D71                             00000001
B5D72                             00000002
B5D73                             00000003
B5D74                             00000004
B5D75                             00000005
B5D76                             00000006
B5D77                             00000007
B5DLC                             00000ED5
B5EIDH                            00000ED3
B5EIDL                            00000ED4
B5IE                              00000007
B5SIDH                            00000ED1
B5SIDL                            00000ED2
B5TXEN                            00000007
BANKED                            00000001
BAUDCON1                          00000FA7
BAUDCON2                          00000FB9
BCLIE                             00000003
BCLIF                             00000003
gpasm-1.4.0 #1107 (Nov  3 2014) pic18f26k80.a   11-6-2014  18:33:50         PAGE 14


SYMBOL TABLE
  LABEL                             VALUE 

BCLIP                             00000003
BF                                00000000
BGVST                             00000006
BIE0                              00000E7E
BOR                               00000000
BRG16                             00000003
BRGCON1                           00000E43
BRGCON2                           00000E44
BRGCON3                           00000E45
BRGH                              00000002
BRGH1                             00000002
BRGH2                             00000002
BRP0                              00000000
BRP1                              00000001
BRP2                              00000002
BRP3                              00000003
BRP4                              00000004
BRP5                              00000005
BSEL0                             00000E7D
BSR                               00000FE0
C                                 00000000
C1TSEL                            00000000
C2TSEL                            00000001
C3TSEL                            00000002
C4TSEL                            00000003
C5TSEL                            00000004
CANCAP                            00000004
CANCON                            00000F6F
CANCON_RO0                        00000F3F
CANCON_RO1                        00000F2F
CANCON_RO2                        00000F1F
CANCON_RO3                        00000F0F
CANCON_RO4                        00000EDF
CANCON_RO5                        00000ECF
CANCON_RO6                        00000EBF
CANCON_RO7                        00000EAF
CANCON_RO8                        00000E9F
CANCON_RO9                        00000E8F
CANSTAT                           00000F6E
CANSTAT_RO0                       00000F3E
CANSTAT_RO1                       00000F2E
CANSTAT_RO2                       00000F1E
CANSTAT_RO3                       00000F0E
CANSTAT_RO4                       00000EDE
CANSTAT_RO5                       00000ECE
CANSTAT_RO6                       00000EBE
CANSTAT_RO7                       00000EAE
CANSTAT_RO8                       00000E9E
CANSTAT_RO9                       00000E8E
CCH0                              00000000
CCH1                              00000001
CCP1CON                           00000FBB
CCP1IE                            00000001
gpasm-1.4.0 #1107 (Nov  3 2014) pic18f26k80.a   11-6-2014  18:33:50         PAGE 15


SYMBOL TABLE
  LABEL                             VALUE 

CCP1IF                            00000001
CCP1IP                            00000001
CCP1M0                            00000000
CCP1M1                            00000001
CCP1M2                            00000002
CCP1M3                            00000003
CCP1MD                            00000003
CCP1OD                            00000002
CCP1X                             00000005
CCP1Y                             00000004
CCP2CON                           00000F50
CCP2IE                            00000002
CCP2IF                            00000002
CCP2IP                            00000002
CCP2M0                            00000000
CCP2M1                            00000001
CCP2M2                            00000002
CCP2M3                            00000003
CCP2MD                            00000004
CCP2OD                            00000003
CCP2X                             00000005
CCP2Y                             00000004
CCP3CON                           00000F4D
CCP3IE                            00000000
CCP3IF                            00000000
CCP3IP                            00000000
CCP3M0                            00000000
CCP3M1                            00000001
CCP3M2                            00000002
CCP3M3                            00000003
CCP3MD                            00000005
CCP3OD                            00000004
CCP3X                             00000005
CCP3Y                             00000004
CCP4CON                           00000F4A
CCP4IE                            00000001
CCP4IF                            00000001
CCP4IP                            00000001
CCP4M0                            00000000
CCP4M1                            00000001
CCP4M2                            00000002
CCP4M3                            00000003
CCP4MD                            00000006
CCP4OD                            00000005
CCP4X                             00000005
CCP4Y                             00000004
CCP5CON                           00000F47
CCP5IE                            00000002
CCP5IF                            00000002
CCP5IP                            00000002
CCP5M0                            00000000
CCP5M1                            00000001
CCP5M2                            00000002
gpasm-1.4.0 #1107 (Nov  3 2014) pic18f26k80.a   11-6-2014  18:33:50         PAGE 16


SYMBOL TABLE
  LABEL                             VALUE 

CCP5M3                            00000003
CCP5MD                            00000007
CCP5OD                            00000006
CCP5X                             00000005
CCP5Y                             00000004
CCPR1                             00000FBC
CCPR1H                            00000FBD
CCPR1L                            00000FBC
CCPR2                             00000F51
CCPR2H                            00000F52
CCPR2L                            00000F51
CCPR3                             00000F4E
CCPR3H                            00000F4F
CCPR3L                            00000F4E
CCPR4                             00000F4B
CCPR4H                            00000F4C
CCPR4L                            00000F4B
CCPR5                             00000F48
CCPR5H                            00000F49
CCPR5L                            00000F48
CCPTMRS                           00000F99
CFGS                              00000006
CHS0                              00000002
CHS1                              00000003
CHS2                              00000004
CHS3                              00000005
CHS4                              00000006
CHSN0                             00000000
CHSN1                             00000001
CHSN2                             00000002
CIOCON                            00000F70
CKE                               00000006
CKP                               00000004
CLKSEL                            00000000
CM                                00000005
CM1CON                            00000F5F
CM1CON1                           00000F5F
CM2CON                            00000F5E
CM2CON1                           00000F5E
CMP1IE                            00000004
CMP1IF                            00000004
CMP1IP                            00000004
CMP1MD                            00000000
CMP1OUT                           00000006
CMP2IE                            00000005
CMP2IF                            00000005
CMP2IP                            00000005
CMP2MD                            00000001
CMP2OUT                           00000007
CMPL0                             00000006
CMPL1                             00000007
CMSTAT                            00000FB4
CMSTATUS                          00000FB4
gpasm-1.4.0 #1107 (Nov  3 2014) pic18f26k80.a   11-6-2014  18:33:50         PAGE 17


SYMBOL TABLE
  LABEL                             VALUE 

COE                               00000006
COMSTAT                           00000F71
CON                               00000007
CPOL                              00000005
CREF                              00000002
CREN                              00000004
CREN1                             00000004
CREN2                             00000004
CSRC                              00000007
CSRC1                             00000007
CSRC2                             00000007
CTMUCONH                          00000F55
CTMUCONL                          00000F54
CTMUDS                            00000000
CTMUEN                            00000007
CTMUICON                          00000F53
CTMUIE                            00000003
CTMUIF                            00000003
CTMUIP                            00000003
CTMUMD                            00000006
CTMUSIDL                          00000005
CTTRIG                            00000000
CVR0                              00000000
CVR1                              00000001
CVR2                              00000002
CVR3                              00000003
CVR4                              00000004
CVRCON                            00000FB5
CVREN                             00000007
CVROE                             00000006
CVRSS                             00000005
DATA_ADDRESS                      00000005
DC                                00000001
DC1B0                             00000004
DC1B1                             00000005
DC2B0                             00000004
DC2B1                             00000005
DC3B0                             00000004
DC3B1                             00000005
DC4B0                             00000004
DC4B1                             00000005
DC5B0                             00000004
DC5B1                             00000005
DDRA                              TRISA
DDRB                              TRISB
DDRC                              TRISC
DDRD                              TRISD
DDRE                              TRISE
DELAY                             00000012
DLC0                              00000000
DLC1                              00000001
DLC2                              00000002
DLC3                              00000003
gpasm-1.4.0 #1107 (Nov  3 2014) pic18f26k80.a   11-6-2014  18:33:50         PAGE 18


SYMBOL TABLE
  LABEL                             VALUE 

DONE                              00000001
D_A                               00000005
D_NOT_A                           00000005
Delay1                            00000000
Delay2                            00000001
Delay3                            00000002
ECANCON                           00000F72
ECANMD                            00000002
ECCP1AS                           00000FBF
ECCP1AS0                          00000004
ECCP1AS1                          00000005
ECCP1AS2                          00000006
ECCP1ASE                          00000007
ECCP1CON                          00000FBB
ECCP1DEL                          00000FBE
ECCP2CON                          00000F50
EDG1POL                           00000004
EDG1SEL0                          00000002
EDG1SEL1                          00000003
EDG1STAT                          00000000
EDG2POL                           00000007
EDG2SEL0                          00000005
EDG2SEL1                          00000006
EDG2STAT                          00000001
EDGEN                             00000003
EDGSEQEN                          00000002
EDI16                             00000000
EDI17                             00000001
EEADR                             00000F74
EEADRH                            00000F75
EECON1                            00000F7F
EECON2                            00000F7E
EEDATA                            00000F73
EEIE                              00000006
EEIF                              00000006
EEIP                              00000006
EEPGD                             00000007
EICODE0                           00000000
EICODE1                           00000001
EICODE1_ICODE0                    00000001
EICODE2                           00000002
EICODE2_ICODE1                    00000002
EICODE3                           00000003
EICODE3_ICODE2                    00000003
EICODE4                           00000004
EID0                              00000000
EID1                              00000001
EID10                             00000002
EID11                             00000003
EID12                             00000004
EID13                             00000005
EID14                             00000006
EID15                             00000007
gpasm-1.4.0 #1107 (Nov  3 2014) pic18f26k80.a   11-6-2014  18:33:50         PAGE 19


SYMBOL TABLE
  LABEL                             VALUE 

EID16                             00000000
EID17                             00000001
EID2                              00000002
EID3                              00000003
EID4                              00000004
EID5                              00000005
EID6                              00000006
EID7                              00000007
EID8                              00000000
EID9                              00000001
ENDRHI                            00000005
ERRIE                             00000005
ERRIF                             00000005
ERRIP                             00000005
EVPOL0                            00000003
EVPOL1                            00000004
EWARN                             00000000
EWIN0                             00000000
EWIN1                             00000001
EWIN2                             00000002
EWIN3                             00000003
EWIN4                             00000004
EXID                              00000003
EXIDE                             00000003
EXIDEN                            00000003
F0BP_0                            00000000
F0BP_1                            00000001
F0BP_2                            00000002
F0BP_3                            00000003
F10BP_0                           00000000
F10BP_1                           00000001
F10BP_2                           00000002
F10BP_3                           00000003
F11BP_0                           00000004
F11BP_1                           00000005
F11BP_2                           00000006
F11BP_3                           00000007
F12BP_0                           00000000
F12BP_1                           00000001
F12BP_2                           00000002
F12BP_3                           00000003
F13BP_0                           00000004
F13BP_1                           00000005
F13BP_2                           00000006
F13BP_3                           00000007
F14BP_0                           00000000
F14BP_1                           00000001
F14BP_2                           00000002
F14BP_3                           00000003
F15BP_0                           00000004
F15BP_1                           00000005
F15BP_2                           00000006
F15BP_3                           00000007
gpasm-1.4.0 #1107 (Nov  3 2014) pic18f26k80.a   11-6-2014  18:33:50         PAGE 20


SYMBOL TABLE
  LABEL                             VALUE 

F1BP_0                            00000004
F1BP_1                            00000005
F1BP_2                            00000006
F1BP_3                            00000007
F2BP_0                            00000000
F2BP_1                            00000001
F2BP_2                            00000002
F2BP_3                            00000003
F3BP_0                            00000004
F3BP_1                            00000005
F3BP_2                            00000006
F3BP_3                            00000007
F4BP_0                            00000000
F4BP_1                            00000001
F4BP_2                            00000002
F4BP_3                            00000003
F5BP_0                            00000004
F5BP_1                            00000005
F5BP_2                            00000006
F5BP_3                            00000007
F6BP_0                            00000000
F6BP_1                            00000001
F6BP_2                            00000002
F6BP_3                            00000003
F7BP_0                            00000004
F7BP_1                            00000005
F7BP_2                            00000006
F7BP_3                            00000007
F8BP_0                            00000000
F8BP_1                            00000001
F8BP_2                            00000002
F8BP_3                            00000003
F9BP_0                            00000004
F9BP_1                            00000005
F9BP_2                            00000006
F9BP_3                            00000007
FAST                              00000001
FERR                              00000002
FERR1                             00000002
FERR2                             00000002
FIFOWM                            00000005
FIFOWMIE                          00000000
FIFOWMIF                          00000000
FIFOWMIP                          00000000
FIL0_0                            00000000
FIL0_1                            00000001
FIL10_0                           00000004
FIL10_1                           00000005
FIL11_0                           00000006
FIL11_1                           00000007
FIL12_0                           00000000
FIL12_1                           00000001
FIL13_0                           00000002
gpasm-1.4.0 #1107 (Nov  3 2014) pic18f26k80.a   11-6-2014  18:33:50         PAGE 21


SYMBOL TABLE
  LABEL                             VALUE 

FIL13_1                           00000003
FIL14_0                           00000004
FIL14_1                           00000005
FIL15_0                           00000006
FIL15_1                           00000007
FIL1_0                            00000002
FIL1_1                            00000003
FIL2_0                            00000004
FIL2_1                            00000005
FIL3_0                            00000006
FIL3_1                            00000007
FIL4_0                            00000000
FIL4_1                            00000001
FIL5_0                            00000002
FIL5_1                            00000003
FIL6_0                            00000004
FIL6_1                            00000005
FIL7_0                            00000006
FIL7_1                            00000007
FIL8_0                            00000000
FIL8_1                            00000001
FIL9_0                            00000002
FIL9_1                            00000003
FILHIT0                           00000000
FILHIT0_TXPRI0                    00000000
FILHIT1                           00000001
FILHIT1_TXPRI1                    00000001
FILHIT2                           00000002
FILHIT2_RTREN                     00000002
FILHIT3                           00000003
FILHIT3_TXREQ                     00000003
FILHIT4                           00000004
FILHIT4_TXERR                     00000004
FLC0                              00000000
FLC1                              00000001
FLC2                              00000002
FLC3                              00000003
FLC4                              00000004
FP0                               00000000
FP1                               00000001
FP2                               00000002
FP3                               00000003
FREE                              00000004
FSR0                              00000000
FSR0H                             00000FEA
FSR0L                             00000FE9
FSR1                              00000001
FSR1H                             00000FE2
FSR1L                             00000FE1
FSR2                              00000002
FSR2H                             00000FDA
FSR2L                             00000FD9
GCEN                              00000007
gpasm-1.4.0 #1107 (Nov  3 2014) pic18f26k80.a   11-6-2014  18:33:50         PAGE 22


SYMBOL TABLE
  LABEL                             VALUE 

GIE                               00000007
GIEH                              00000007
GIEL                              00000006
GIE_GIEH                          00000007
GO                                00000001
GO_NOT_DONE                       00000001
HFIOFS                            00000002
HLVDCON                           00000FA8
HLVDEN                            00000004
HLVDIE                            00000002
HLVDIF                            00000002
HLVDIP                            00000002
HLVDL0                            00000000
HLVDL1                            00000001
HLVDL2                            00000002
HLVDL3                            00000003
I2C_DAT                           00000005
I2C_READ                          00000002
I2C_START                         00000003
I2C_STOP                          00000004
ICODE0                            00000001
ICODE1                            00000002
ICODE2                            00000003
ICODE20                           00000001
ICODE21                           00000002
IDISSEN                           00000001
IDLEN                             00000007
INDF0                             00000FEF
INDF1                             00000FE7
INDF2                             00000FDF
INIT                              00000004
INT0E                             00000004
INT0F                             00000001
INT0IE                            00000004
INT0IF                            00000001
INT1E                             00000003
INT1F                             00000000
INT1IE                            00000003
INT1IF                            00000000
INT1IP                            00000006
INT1P                             00000006
INT2E                             00000004
INT2F                             00000001
INT2IE                            00000004
INT2IF                            00000001
INT2IP                            00000007
INT2P                             00000007
INT3E                             00000005
INT3F                             00000002
INT3IE                            00000005
INT3IF                            00000002
INT3IP                            00000001
INT3P                             00000001
gpasm-1.4.0 #1107 (Nov  3 2014) pic18f26k80.a   11-6-2014  18:33:50         PAGE 23


SYMBOL TABLE
  LABEL                             VALUE 

INTCON                            00000FF2
INTCON1                           00000FF2
INTCON2                           00000FF1
INTCON3                           00000FF0
INTEDG0                           00000006
INTEDG1                           00000005
INTEDG2                           00000004
INTEDG3                           00000003
INTSRC                            00000007
IOCB                              00000F5A
IOCB4                             00000004
IOCB5                             00000005
IOCB6                             00000006
IOCB7                             00000007
IPEN                              00000007
IPR1                              00000F9F
IPR2                              00000FA2
IPR3                              00000FA5
IPR4                              00000FB8
IPR5                              00000F78
IRCF0                             00000004
IRCF1                             00000005
IRCF2                             00000006
IRNG0                             00000000
IRNG1                             00000001
IRVST                             00000005
IRXIE                             00000007
IRXIF                             00000007
IRXIP                             00000007
ITRIM0                            00000002
ITRIM1                            00000003
ITRIM2                            00000004
ITRIM3                            00000005
ITRIM4                            00000006
ITRIM5                            00000007
JTOFF                             00000001
JTOFF_FILHIT1                     00000001
LATA                              00000F89
LATA0                             00000000
LATA1                             00000001
LATA2                             00000002
LATA3                             00000003
LATA5                             00000005
LATA6                             00000006
LATA7                             00000007
LATB                              00000F8A
LATB0                             00000000
LATB1                             00000001
LATB2                             00000002
LATB3                             00000003
LATB4                             00000004
LATB5                             00000005
LATB6                             00000006
gpasm-1.4.0 #1107 (Nov  3 2014) pic18f26k80.a   11-6-2014  18:33:50         PAGE 24


SYMBOL TABLE
  LABEL                             VALUE 

LATB7                             00000007
LATC                              00000F8B
LATC0                             00000000
LATC1                             00000001
LATC2                             00000002
LATC3                             00000003
LATC4                             00000004
LATC5                             00000005
LATC6                             00000006
LATC7                             00000007
LOOP                              00000008
LVDIE                             00000002
LVDIF                             00000002
LVDIP                             00000002
LVDL0                             00000000
LVDL1                             00000001
LVDL2                             00000002
LVDL3                             00000003
MDSEL0                            00000006
MDSEL1                            00000007
MFIOFS                            00000001
MFIOSEL                           00000000
MSEL0                             00000E79
MSEL1                             00000E7A
MSEL2                             00000E7B
MSEL3                             00000E7C
MSK0                              00000000
MSK1                              00000001
MSK2                              00000002
MSK3                              00000003
MSK4                              00000004
MSK5                              00000005
MSK6                              00000006
MSK7                              00000007
N                                 00000004
NOT_A                             00000005
NOT_ADDRESS                       00000005
NOT_BOR                           00000000
NOT_CM                            00000005
NOT_DONE                          00000001
NOT_FIFOEMPTY                     00000007
NOT_PD                            00000002
NOT_POR                           00000001
NOT_RBPU                          00000007
NOT_RC8                           00000006
NOT_RI                            00000004
NOT_T1DONE                        00000003
NOT_T1SYNC                        00000002
NOT_T3DONE                        00000003
NOT_T3SYNC                        00000002
NOT_TO                            00000003
NOT_TX8                           00000006
NOT_W                             00000002
gpasm-1.4.0 #1107 (Nov  3 2014) pic18f26k80.a   11-6-2014  18:33:50         PAGE 25


SYMBOL TABLE
  LABEL                             VALUE 

NOT_WRITE                         00000002
ODCON                             00000F91
OERR                              00000001
OERR1                             00000001
OERR2                             00000001
OPMODE0                           00000005
OPMODE1                           00000006
OPMODE2                           00000007
OSCCON                            00000FD3
OSCCON2                           00000FD2
OSCFIE                            00000007
OSCFIF                            00000007
OSCFIP                            00000007
OSCTUNE                           00000F9B
OSTS                              00000003
OV                                00000003
P                                 00000004
P1DC0                             00000000
P1DC1                             00000001
P1DC2                             00000002
P1DC3                             00000003
P1DC4                             00000004
P1DC5                             00000005
P1DC6                             00000006
P1M0                              00000006
P1M1                              00000007
P1RSEN                            00000007
PADCFG1                           00000F56
PC                                00000FF9
PCL                               00000FF9
PCLATH                            00000FFA
PCLATU                            00000FFB
PD                                00000002
PEIE                              00000006
PEIE_GIEL                         00000006
PEN                               00000002
PIE1                              00000F9D
PIE2                              00000FA0
PIE3                              00000FA3
PIE4                              00000FB6
PIE5                              00000F76
PIR1                              00000F9E
PIR2                              00000FA1
PIR3                              00000FA4
PIR4                              00000FB7
PIR5                              00000F77
PLLEN                             00000006
PLUSW0                            00000FEB
PLUSW1                            00000FE3
PLUSW2                            00000FDB
PMD0                              00000F59
PMD1                              00000F58
PMD2                              00000F57
gpasm-1.4.0 #1107 (Nov  3 2014) pic18f26k80.a   11-6-2014  18:33:50         PAGE 26


SYMBOL TABLE
  LABEL                             VALUE 

POR                               00000001
PORTA                             00000F80
PORTB                             00000F81
PORTC                             00000F82
PORTE                             00000F84
POSTDEC0                          00000FED
POSTDEC1                          00000FE5
POSTDEC2                          00000FDD
POSTINC0                          00000FEE
POSTINC1                          00000FE6
POSTINC2                          00000FDE
PR2                               00000FCB
PR4                               00000FA9
PREINC0                           00000FEC
PREINC1                           00000FE4
PREINC2                           00000FDC
PROD                              00000FF3
PRODH                             00000FF4
PRODL                             00000FF3
PRSEG0                            00000000
PRSEG1                            00000001
PRSEG2                            00000002
PSA                               00000003
PSPMD                             00000007
PSS1AC0                           00000002
PSS1AC1                           00000003
PSS1BD0                           00000000
PSS1BD1                           00000001
PSTR1CON                          00000F9C
PWM1CON                           00000FBE
RA0                               00000000
RA1                               00000001
RA2                               00000002
RA3                               00000003
RA5                               00000005
RA6                               00000006
RA7                               00000007
RB0DBEN                           00000002
RB0DBEN_FILHIT2                   00000002
RB0_B0DLC                         00000004
RB0_B1DLC                         00000004
RB0_B2DLC                         00000004
RB0_B3DLC                         00000004
RB0_B4DLC                         00000004
RB0_B5DLC                         00000004
RB0_PORTB                         00000000
RB0_RXB0DLC                       00000004
RB0_RXB1DLC                       00000004
RB1_B0DLC                         00000005
RB1_B1DLC                         00000005
RB1_B2DLC                         00000005
RB1_B3DLC                         00000005
RB1_B4DLC                         00000005
gpasm-1.4.0 #1107 (Nov  3 2014) pic18f26k80.a   11-6-2014  18:33:50         PAGE 27


SYMBOL TABLE
  LABEL                             VALUE 

RB1_B5DLC                         00000005
RB1_PORTB                         00000001
RB1_RXB0DLC                       00000005
RB1_RXB1DLC                       00000005
RB2                               00000002
RB3                               00000003
RB4                               00000004
RB5                               00000005
RB6                               00000006
RB7                               00000007
RBIE                              00000003
RBIF                              00000000
RBIP                              00000000
RBPU                              00000007
RC0                               00000000
RC1                               00000001
RC1IE                             00000005
RC1IF                             00000005
RC1IP                             00000005
RC2                               00000002
RC2IE                             00000005
RC2IF                             00000005
RC2IP                             00000005
RC3                               00000003
RC4                               00000004
RC5                               00000005
RC6                               00000006
RC7                               00000007
RC8_9                             00000006
RC9                               00000006
RCD8                              00000000
RCEN                              00000003
RCIDL                             00000006
RCIE                              00000005
RCIF                              00000005
RCIP                              00000005
RCMT                              00000006
RCON                              00000FD0
RCREG                             00000FAE
RCREG1                            00000FAE
RCREG2                            00000F7A
RCSTA                             00000FAB
RCSTA1                            00000FAB
RCSTA2                            00000FA6
RD                                00000000
RD16                              00000001
RE3                               00000003
READ_WRITE                        00000002
REC0                              00000000
REC1                              00000001
REC2                              00000002
REC3                              00000003
REC4                              00000004
gpasm-1.4.0 #1107 (Nov  3 2014) pic18f26k80.a   11-6-2014  18:33:50         PAGE 28


SYMBOL TABLE
  LABEL                             VALUE 

REC5                              00000005
REC6                              00000006
REC7                              00000007
REFOCON                           00000F9A
REGSLP                            00000007
RI                                00000004
RODIV0                            00000000
RODIV1                            00000001
RODIV2                            00000002
RODIV3                            00000003
ROON                              00000007
ROSEL                             00000004
ROSSLP                            00000005
RSEN                              00000001
RTREN                             00000002
RTRRO                             00000005
RX9                               00000006
RX91                              00000006
RX92                              00000006
RX9D                              00000000
RX9D1                             00000000
RX9D2                             00000000
RXB0CON                           00000F60
RXB0D0                            00000F66
RXB0D00                           00000000
RXB0D01                           00000001
RXB0D02                           00000002
RXB0D03                           00000003
RXB0D04                           00000004
RXB0D05                           00000005
RXB0D06                           00000006
RXB0D07                           00000007
RXB0D1                            00000F67
RXB0D10                           00000000
RXB0D11                           00000001
RXB0D12                           00000002
RXB0D13                           00000003
RXB0D14                           00000004
RXB0D15                           00000005
RXB0D16                           00000006
RXB0D17                           00000007
RXB0D2                            00000F68
RXB0D20                           00000000
RXB0D21                           00000001
RXB0D22                           00000002
RXB0D23                           00000003
RXB0D24                           00000004
RXB0D25                           00000005
RXB0D26                           00000006
RXB0D27                           00000007
RXB0D3                            00000F69
RXB0D30                           00000000
RXB0D31                           00000001
gpasm-1.4.0 #1107 (Nov  3 2014) pic18f26k80.a   11-6-2014  18:33:50         PAGE 29


SYMBOL TABLE
  LABEL                             VALUE 

RXB0D32                           00000002
RXB0D33                           00000003
RXB0D34                           00000004
RXB0D35                           00000005
RXB0D36                           00000006
RXB0D37                           00000007
RXB0D4                            00000F6A
RXB0D40                           00000000
RXB0D41                           00000001
RXB0D42                           00000002
RXB0D43                           00000003
RXB0D44                           00000004
RXB0D45                           00000005
RXB0D46                           00000006
RXB0D47                           00000007
RXB0D5                            00000F6B
RXB0D50                           00000000
RXB0D51                           00000001
RXB0D52                           00000002
RXB0D53                           00000003
RXB0D54                           00000004
RXB0D55                           00000005
RXB0D56                           00000006
RXB0D57                           00000007
RXB0D6                            00000F6C
RXB0D60                           00000000
RXB0D61                           00000001
RXB0D62                           00000002
RXB0D63                           00000003
RXB0D64                           00000004
RXB0D65                           00000005
RXB0D66                           00000006
RXB0D67                           00000007
RXB0D7                            00000F6D
RXB0D70                           00000000
RXB0D71                           00000001
RXB0D72                           00000002
RXB0D73                           00000003
RXB0D74                           00000004
RXB0D75                           00000005
RXB0D76                           00000006
RXB0D77                           00000007
RXB0DLC                           00000F65
RXB0EIDH                          00000F63
RXB0EIDL                          00000F64
RXB0IE                            00000000
RXB0IF                            00000000
RXB0IP                            00000000
RXB0OVFL                          00000007
RXB0SIDH                          00000F61
RXB0SIDL                          00000F62
RXB1CON                           00000F30
RXB1D0                            00000F36
gpasm-1.4.0 #1107 (Nov  3 2014) pic18f26k80.a   11-6-2014  18:33:50         PAGE 30


SYMBOL TABLE
  LABEL                             VALUE 

RXB1D00                           00000000
RXB1D01                           00000001
RXB1D02                           00000002
RXB1D03                           00000003
RXB1D04                           00000004
RXB1D05                           00000005
RXB1D06                           00000006
RXB1D07                           00000007
RXB1D1                            00000F37
RXB1D10                           00000000
RXB1D11                           00000001
RXB1D12                           00000002
RXB1D13                           00000003
RXB1D14                           00000004
RXB1D15                           00000005
RXB1D16                           00000006
RXB1D17                           00000007
RXB1D2                            00000F38
RXB1D20                           00000000
RXB1D21                           00000001
RXB1D22                           00000002
RXB1D23                           00000003
RXB1D24                           00000004
RXB1D25                           00000005
RXB1D26                           00000006
RXB1D27                           00000007
RXB1D3                            00000F39
RXB1D30                           00000000
RXB1D31                           00000001
RXB1D32                           00000002
RXB1D33                           00000003
RXB1D34                           00000004
RXB1D35                           00000005
RXB1D36                           00000006
RXB1D37                           00000007
RXB1D4                            00000F3A
RXB1D40                           00000000
RXB1D41                           00000001
RXB1D42                           00000002
RXB1D43                           00000003
RXB1D44                           00000004
RXB1D45                           00000005
RXB1D46                           00000006
RXB1D47                           00000007
RXB1D5                            00000F3B
RXB1D50                           00000000
RXB1D51                           00000001
RXB1D52                           00000002
RXB1D53                           00000003
RXB1D54                           00000004
RXB1D55                           00000005
RXB1D56                           00000006
RXB1D57                           00000007
gpasm-1.4.0 #1107 (Nov  3 2014) pic18f26k80.a   11-6-2014  18:33:50         PAGE 31


SYMBOL TABLE
  LABEL                             VALUE 

RXB1D6                            00000F3C
RXB1D60                           00000000
RXB1D61                           00000001
RXB1D62                           00000002
RXB1D63                           00000003
RXB1D64                           00000004
RXB1D65                           00000005
RXB1D66                           00000006
RXB1D67                           00000007
RXB1D7                            00000F3D
RXB1D70                           00000000
RXB1D71                           00000001
RXB1D72                           00000002
RXB1D73                           00000003
RXB1D74                           00000004
RXB1D75                           00000005
RXB1D76                           00000006
RXB1D77                           00000007
RXB1DLC                           00000F35
RXB1EIDH                          00000F33
RXB1EIDL                          00000F34
RXB1IE                            00000001
RXB1IF                            00000001
RXB1IP                            00000001
RXB1OVFL                          00000006
RXB1SIDH                          00000F31
RXB1SIDL                          00000F32
RXBP                              00000003
RXBnIE                            00000001
RXBnIF                            00000001
RXBnIP                            00000001
RXDTP                             00000005
RXERRCNT                          00000E41
RXF0EIDH                          00000EE2
RXF0EIDL                          00000EE3
RXF0EN                            00000000
RXF0SIDH                          00000EE0
RXF0SIDL                          00000EE1
RXF10EIDH                         00000E5A
RXF10EIDL                         00000E5B
RXF10EN                           00000002
RXF10SIDH                         00000E58
RXF10SIDL                         00000E59
RXF11EIDH                         00000E5E
RXF11EIDL                         00000E5F
RXF11EN                           00000003
RXF11SIDH                         00000E5C
RXF11SIDL                         00000E5D
RXF12EIDH                         00000E62
RXF12EIDL                         00000E63
RXF12EN                           00000004
RXF12SIDH                         00000E60
RXF12SIDL                         00000E61
gpasm-1.4.0 #1107 (Nov  3 2014) pic18f26k80.a   11-6-2014  18:33:50         PAGE 32


SYMBOL TABLE
  LABEL                             VALUE 

RXF13EIDH                         00000E66
RXF13EIDL                         00000E67
RXF13EN                           00000005
RXF13SIDH                         00000E64
RXF13SIDL                         00000E65
RXF14EIDH                         00000E6A
RXF14EIDL                         00000E6B
RXF14EN                           00000006
RXF14SIDH                         00000E68
RXF14SIDL                         00000E69
RXF15EIDH                         00000E6E
RXF15EIDL                         00000E6F
RXF15EN                           00000007
RXF15SIDH                         00000E6C
RXF15SIDL                         00000E6D
RXF1EIDH                          00000EE6
RXF1EIDL                          00000EE7
RXF1EN                            00000001
RXF1SIDH                          00000EE4
RXF1SIDL                          00000EE5
RXF2EIDH                          00000EEA
RXF2EIDL                          00000EEB
RXF2EN                            00000002
RXF2SIDH                          00000EE8
RXF2SIDL                          00000EE9
RXF3EIDH                          00000EEE
RXF3EIDL                          00000EEF
RXF3EN                            00000003
RXF3SIDH                          00000EEC
RXF3SIDL                          00000EED
RXF4EIDH                          00000EF2
RXF4EIDL                          00000EF3
RXF4EN                            00000004
RXF4SIDH                          00000EF0
RXF4SIDL                          00000EF1
RXF5EIDH                          00000EF6
RXF5EIDL                          00000EF7
RXF5EN                            00000005
RXF5SIDH                          00000EF4
RXF5SIDL                          00000EF5
RXF6EIDH                          00000E4A
RXF6EIDL                          00000E4B
RXF6EN                            00000006
RXF6SIDH                          00000E48
RXF6SIDL                          00000E49
RXF7EIDH                          00000E4E
RXF7EIDL                          00000E4F
RXF7EN                            00000007
RXF7SIDH                          00000E4C
RXF7SIDL                          00000E4D
RXF8EIDH                          00000E52
RXF8EIDL                          00000E53
RXF8EN                            00000000
gpasm-1.4.0 #1107 (Nov  3 2014) pic18f26k80.a   11-6-2014  18:33:50         PAGE 33


SYMBOL TABLE
  LABEL                             VALUE 

RXF8SIDH                          00000E50
RXF8SIDL                          00000E51
RXF9EIDH                          00000E56
RXF9EIDL                          00000E57
RXF9EN                            00000001
RXF9SIDH                          00000E54
RXF9SIDL                          00000E55
RXFBCON0                          00000E71
RXFBCON1                          00000E72
RXFBCON2                          00000E73
RXFBCON3                          00000E74
RXFBCON4                          00000E75
RXFBCON5                          00000E76
RXFBCON6                          00000E77
RXFBCON7                          00000E78
RXFCON0                           00000E46
RXFCON1                           00000E47
RXFUL                             00000007
RXFUL_TXBIF                       00000007
RXM0                              00000005
RXM0EIDH                          00000EFA
RXM0EIDL                          00000EFB
RXM0SIDH                          00000EF8
RXM0SIDL                          00000EF9
RXM0_RTRRO                        00000005
RXM1                              00000006
RXM1EIDH                          00000EFE
RXM1EIDL                          00000EFF
RXM1SIDH                          00000EFC
RXM1SIDL                          00000EFD
RXM1_TXABT                        00000006
RXRTR                             00000006
RXRTRRO_B0CON                     00000005
RXRTRRO_B1CON                     00000005
RXRTRRO_B2CON                     00000005
RXRTRRO_B3CON                     00000005
RXRTRRO_B4CON                     00000005
RXRTRRO_B5CON                     00000005
RXRTRRO_FILHIT3                   00000003
RXRTRRO_RXB0CON                   00000003
RXRTRRO_RXB1CON                   00000003
RXRTRRO_TXLARB                    00000005
RXRTR_TXRTR                       00000006
RXWARN                            00000001
R_NOT_W                           00000002
R_W                               00000002
S                                 00000003
SAM                               00000006
SBOREN                            00000006
SCS0                              00000000
SCS1                              00000001
SDFLC                             00000E70
SEG1PH0                           00000003
gpasm-1.4.0 #1107 (Nov  3 2014) pic18f26k80.a   11-6-2014  18:33:50         PAGE 34


SYMBOL TABLE
  LABEL                             VALUE 

SEG1PH1                           00000004
SEG1PH2                           00000005
SEG2PH0                           00000000
SEG2PH1                           00000001
SEG2PH2                           00000002
SEG2PHTS                          00000007
SEN                               00000000
SENDB                             00000003
SENDB1                            00000003
SENDB2                            00000003
SID0                              00000005
SID1                              00000006
SID10                             00000007
SID2                              00000007
SID3                              00000000
SID4                              00000001
SID5                              00000002
SID6                              00000003
SID7                              00000004
SID8                              00000005
SID9                              00000006
SJW0                              00000006
SJW1                              00000007
SLRA                              00000000
SLRB                              00000001
SLRC                              00000002
SLRCON                            00000F90
SMP                               00000007
SOSCDRV                           00000004
SOSCEN                            00000003
SOSCGO                            00000003
SOSCRUN                           00000006
SP0                               00000000
SP1                               00000001
SP2                               00000002
SP3                               00000003
SP4                               00000004
SPBRG                             00000FAF
SPBRG1                            00000FAF
SPBRG2                            00000F7B
SPBRGH1                           00000F7D
SPBRGH2                           00000F7C
SPEN                              00000007
SPEN1                             00000007
SPEN2                             00000007
SREN                              00000005
SREN1                             00000005
SREN2                             00000005
SRETEN                            00000004
SRR                               00000004
SSPADD                            00000FC8
SSPBUF                            00000FC9
SSPCON1                           00000FC6
gpasm-1.4.0 #1107 (Nov  3 2014) pic18f26k80.a   11-6-2014  18:33:50         PAGE 35


SYMBOL TABLE
  LABEL                             VALUE 

SSPCON2                           00000FC5
SSPEN                             00000005
SSPIE                             00000003
SSPIF                             00000003
SSPIP                             00000003
SSPM0                             00000000
SSPM1                             00000001
SSPM2                             00000002
SSPM3                             00000003
SSPMD                             00000000
SSPOD                             00000007
SSPOV                             00000006
SSPSTAT                           00000FC7
STATUS                            00000FD8
STKFUL                            00000007
STKOVF                            00000007
STKPTR                            00000FFC
STKUNF                            00000006
STRA                              00000000
STRB                              00000001
STRC                              00000002
STRD                              00000003
STRSYNC                           00000004
SWDTE                             00000000
SWDTEN                            00000000
SYNC                              00000004
SYNC1                             00000004
SYNC2                             00000004
T08BIT                            00000006
T0CON                             00000FD5
T0CS                              00000005
T0IE                              00000005
T0IF                              00000002
T0IP                              00000002
T0PS0                             00000000
T0PS1                             00000001
T0PS2                             00000002
T0SE                              00000004
T1CKPS0                           00000004
T1CKPS1                           00000005
T1CON                             00000FCD
T1GCON                            00000FAA
T1GGO                             00000003
T1GGO_NOT_T1DONE                  00000003
T1GPOL                            00000006
T1GSPM                            00000004
T1GSS0                            00000000
T1GSS1                            00000001
T1GTM                             00000005
T1GVAL                            00000002
T2CKPS0                           00000000
T2CKPS1                           00000001
T2CON                             00000FCA
gpasm-1.4.0 #1107 (Nov  3 2014) pic18f26k80.a   11-6-2014  18:33:50         PAGE 36


SYMBOL TABLE
  LABEL                             VALUE 

T2OUTPS0                          00000003
T2OUTPS1                          00000004
T2OUTPS2                          00000005
T2OUTPS3                          00000006
T3CKPS0                           00000004
T3CKPS1                           00000005
T3CON                             00000FB1
T3GCON                            00000FB0
T3GGO                             00000003
T3GGO_NOT_T3DONE                  00000003
T3GPOL                            00000006
T3GSPM                            00000004
T3GSS0                            00000000
T3GSS1                            00000001
T3GTM                             00000005
T3GVAL                            00000002
T4CKPS0                           00000000
T4CKPS1                           00000001
T4CON                             00000F88
T4OUTPS0                          00000003
T4OUTPS1                          00000004
T4OUTPS2                          00000005
T4OUTPS3                          00000006
TABLAT                            00000FF5
TBLPTR                            00000FF6
TBLPTRH                           00000FF7
TBLPTRL                           00000FF6
TBLPTRU                           00000FF8
TEC0                              00000000
TEC1                              00000001
TEC2                              00000002
TEC3                              00000003
TEC4                              00000004
TEC5                              00000005
TEC6                              00000006
TEC7                              00000007
TGEN                              00000004
TMR0                              00000FD6
TMR0H                             00000FD7
TMR0IE                            00000005
TMR0IF                            00000002
TMR0IP                            00000002
TMR0L                             00000FD6
TMR0MD                            00000000
TMR0ON                            00000007
TMR1                              00000FCE
TMR1CS0                           00000006
TMR1CS1                           00000007
TMR1GE                            00000007
TMR1GIE                           00000002
TMR1GIF                           00000002
TMR1GIP                           00000002
TMR1H                             00000FCF
gpasm-1.4.0 #1107 (Nov  3 2014) pic18f26k80.a   11-6-2014  18:33:50         PAGE 37


SYMBOL TABLE
  LABEL                             VALUE 

TMR1IE                            00000000
TMR1IF                            00000000
TMR1IP                            00000000
TMR1L                             00000FCE
TMR1MD                            00000001
TMR1ON                            00000000
TMR2                              00000FCC
TMR2IE                            00000001
TMR2IF                            00000001
TMR2IP                            00000001
TMR2MD                            00000002
TMR2ON                            00000002
TMR3                              00000FB2
TMR3CS0                           00000006
TMR3CS1                           00000007
TMR3GE                            00000007
TMR3GIE                           00000000
TMR3GIF                           00000000
TMR3GIP                           00000000
TMR3H                             00000FB3
TMR3IE                            00000001
TMR3IF                            00000001
TMR3IP                            00000001
TMR3L                             00000FB2
TMR3MD                            00000003
TMR3ON                            00000000
TMR4                              00000F87
TMR4IE                            00000007
TMR4IF                            00000007
TMR4IP                            00000007
TMR4MD                            00000004
TMR4ON                            00000002
TO                                00000003
TOS                               00000FFD
TOSH                              00000FFE
TOSL                              00000FFD
TOSU                              00000FFF
TRIGSEL0                          00000006
TRIGSEL1                          00000007
TRISA                             00000F92
TRISA0                            00000000
TRISA1                            00000001
TRISA2                            00000002
TRISA3                            00000003
TRISA5                            00000005
TRISA6                            00000006
TRISA7                            00000007
TRISB                             00000F93
TRISB0                            00000000
TRISB1                            00000001
TRISB2                            00000002
TRISB3                            00000003
TRISB4                            00000004
gpasm-1.4.0 #1107 (Nov  3 2014) pic18f26k80.a   11-6-2014  18:33:50         PAGE 38


SYMBOL TABLE
  LABEL                             VALUE 

TRISB5                            00000005
TRISB6                            00000006
TRISB7                            00000007
TRISC                             00000F94
TRISC0                            00000000
TRISC1                            00000001
TRISC2                            00000002
TRISC3                            00000003
TRISC4                            00000004
TRISC5                            00000005
TRISC6                            00000006
TRISC7                            00000007
TRMT                              00000001
TRMT1                             00000001
TRMT2                             00000001
TUN0                              00000000
TUN1                              00000001
TUN2                              00000002
TUN3                              00000003
TUN4                              00000004
TUN5                              00000005
TX1IE                             00000004
TX1IF                             00000004
TX1IP                             00000004
TX2EN                             00000006
TX2IE                             00000004
TX2IF                             00000004
TX2IP                             00000004
TX2SRC                            00000007
TX8_9                             00000006
TX9                               00000006
TX91                              00000006
TX92                              00000006
TX9D                              00000000
TX9D1                             00000000
TX9D2                             00000000
TXABT                             00000006
TXB0CON                           00000F20
TXB0D0                            00000F26
TXB0D00                           00000000
TXB0D01                           00000001
TXB0D02                           00000002
TXB0D03                           00000003
TXB0D04                           00000004
TXB0D05                           00000005
TXB0D06                           00000006
TXB0D07                           00000007
TXB0D1                            00000F27
TXB0D10                           00000000
TXB0D11                           00000001
TXB0D12                           00000002
TXB0D13                           00000003
TXB0D14                           00000004
gpasm-1.4.0 #1107 (Nov  3 2014) pic18f26k80.a   11-6-2014  18:33:50         PAGE 39


SYMBOL TABLE
  LABEL                             VALUE 

TXB0D15                           00000005
TXB0D16                           00000006
TXB0D17                           00000007
TXB0D2                            00000F28
TXB0D20                           00000000
TXB0D21                           00000001
TXB0D22                           00000002
TXB0D23                           00000003
TXB0D24                           00000004
TXB0D25                           00000005
TXB0D26                           00000006
TXB0D27                           00000007
TXB0D3                            00000F29
TXB0D30                           00000000
TXB0D31                           00000001
TXB0D32                           00000002
TXB0D33                           00000003
TXB0D34                           00000004
TXB0D35                           00000005
TXB0D36                           00000006
TXB0D37                           00000007
TXB0D4                            00000F2A
TXB0D40                           00000000
TXB0D41                           00000001
TXB0D42                           00000002
TXB0D43                           00000003
TXB0D44                           00000004
TXB0D45                           00000005
TXB0D46                           00000006
TXB0D47                           00000007
TXB0D5                            00000F2B
TXB0D50                           00000000
TXB0D51                           00000001
TXB0D52                           00000002
TXB0D53                           00000003
TXB0D54                           00000004
TXB0D55                           00000005
TXB0D56                           00000006
TXB0D57                           00000007
TXB0D6                            00000F2C
TXB0D60                           00000000
TXB0D61                           00000001
TXB0D62                           00000002
TXB0D63                           00000003
TXB0D64                           00000004
TXB0D65                           00000005
TXB0D66                           00000006
TXB0D67                           00000007
TXB0D7                            00000F2D
TXB0D70                           00000000
TXB0D71                           00000001
TXB0D72                           00000002
TXB0D73                           00000003
gpasm-1.4.0 #1107 (Nov  3 2014) pic18f26k80.a   11-6-2014  18:33:50         PAGE 40


SYMBOL TABLE
  LABEL                             VALUE 

TXB0D74                           00000004
TXB0D75                           00000005
TXB0D76                           00000006
TXB0D77                           00000007
TXB0DLC                           00000F25
TXB0EIDH                          00000F23
TXB0EIDL                          00000F24
TXB0IE                            00000002
TXB0IF                            00000002
TXB0IP                            00000002
TXB0SIDH                          00000F21
TXB0SIDL                          00000F22
TXB1CON                           00000F10
TXB1D0                            00000F16
TXB1D00                           00000000
TXB1D01                           00000001
TXB1D02                           00000002
TXB1D03                           00000003
TXB1D04                           00000004
TXB1D05                           00000005
TXB1D06                           00000006
TXB1D07                           00000007
TXB1D1                            00000F17
TXB1D10                           00000000
TXB1D11                           00000001
TXB1D12                           00000002
TXB1D13                           00000003
TXB1D14                           00000004
TXB1D15                           00000005
TXB1D16                           00000006
TXB1D17                           00000007
TXB1D2                            00000F18
TXB1D20                           00000000
TXB1D21                           00000001
TXB1D22                           00000002
TXB1D23                           00000003
TXB1D24                           00000004
TXB1D25                           00000005
TXB1D26                           00000006
TXB1D27                           00000007
TXB1D3                            00000F19
TXB1D30                           00000000
TXB1D31                           00000001
TXB1D32                           00000002
TXB1D33                           00000003
TXB1D34                           00000004
TXB1D35                           00000005
TXB1D36                           00000006
TXB1D37                           00000007
TXB1D4                            00000F1A
TXB1D40                           00000000
TXB1D41                           00000001
TXB1D42                           00000002
gpasm-1.4.0 #1107 (Nov  3 2014) pic18f26k80.a   11-6-2014  18:33:50         PAGE 41


SYMBOL TABLE
  LABEL                             VALUE 

TXB1D43                           00000003
TXB1D44                           00000004
TXB1D45                           00000005
TXB1D46                           00000006
TXB1D47                           00000007
TXB1D5                            00000F1B
TXB1D50                           00000000
TXB1D51                           00000001
TXB1D52                           00000002
TXB1D53                           00000003
TXB1D54                           00000004
TXB1D55                           00000005
TXB1D56                           00000006
TXB1D57                           00000007
TXB1D6                            00000F1C
TXB1D60                           00000000
TXB1D61                           00000001
TXB1D62                           00000002
TXB1D63                           00000003
TXB1D64                           00000004
TXB1D65                           00000005
TXB1D66                           00000006
TXB1D67                           00000007
TXB1D7                            00000F1D
TXB1D70                           00000000
TXB1D71                           00000001
TXB1D72                           00000002
TXB1D73                           00000003
TXB1D74                           00000004
TXB1D75                           00000005
TXB1D76                           00000006
TXB1D77                           00000007
TXB1DLC                           00000F15
TXB1EIDH                          00000F13
TXB1EIDL                          00000F14
TXB1IE                            00000003
TXB1IF                            00000003
TXB1IP                            00000003
TXB1SIDH                          00000F11
TXB1SIDL                          00000F12
TXB2CON                           00000F00
TXB2D0                            00000F06
TXB2D00                           00000000
TXB2D01                           00000001
TXB2D02                           00000002
TXB2D03                           00000003
TXB2D04                           00000004
TXB2D05                           00000005
TXB2D06                           00000006
TXB2D07                           00000007
TXB2D1                            00000F07
TXB2D10                           00000000
TXB2D11                           00000001
gpasm-1.4.0 #1107 (Nov  3 2014) pic18f26k80.a   11-6-2014  18:33:50         PAGE 42


SYMBOL TABLE
  LABEL                             VALUE 

TXB2D12                           00000002
TXB2D13                           00000003
TXB2D14                           00000004
TXB2D15                           00000005
TXB2D16                           00000006
TXB2D17                           00000007
TXB2D2                            00000F08
TXB2D20                           00000000
TXB2D21                           00000001
TXB2D22                           00000002
TXB2D23                           00000003
TXB2D24                           00000004
TXB2D25                           00000005
TXB2D26                           00000006
TXB2D27                           00000007
TXB2D3                            00000F09
TXB2D30                           00000000
TXB2D31                           00000001
TXB2D32                           00000002
TXB2D33                           00000003
TXB2D34                           00000004
TXB2D35                           00000005
TXB2D36                           00000006
TXB2D37                           00000007
TXB2D4                            00000F0A
TXB2D40                           00000000
TXB2D41                           00000001
TXB2D42                           00000002
TXB2D43                           00000003
TXB2D44                           00000004
TXB2D45                           00000005
TXB2D46                           00000006
TXB2D47                           00000007
TXB2D5                            00000F0B
TXB2D50                           00000000
TXB2D51                           00000001
TXB2D52                           00000002
TXB2D53                           00000003
TXB2D54                           00000004
TXB2D55                           00000005
TXB2D56                           00000006
TXB2D57                           00000007
TXB2D6                            00000F0C
TXB2D60                           00000000
TXB2D61                           00000001
TXB2D62                           00000002
TXB2D63                           00000003
TXB2D64                           00000004
TXB2D65                           00000005
TXB2D66                           00000006
TXB2D67                           00000007
TXB2D7                            00000F0D
TXB2D70                           00000000
gpasm-1.4.0 #1107 (Nov  3 2014) pic18f26k80.a   11-6-2014  18:33:50         PAGE 43


SYMBOL TABLE
  LABEL                             VALUE 

TXB2D71                           00000001
TXB2D72                           00000002
TXB2D73                           00000003
TXB2D74                           00000004
TXB2D75                           00000005
TXB2D76                           00000006
TXB2D77                           00000007
TXB2DLC                           00000F05
TXB2EIDH                          00000F03
TXB2EIDL                          00000F04
TXB2IE                            00000004
TXB2IF                            00000004
TXB2IP                            00000004
TXB2SIDH                          00000F01
TXB2SIDL                          00000F02
TXBIE                             00000E7F
TXBIF                             00000007
TXBO                              00000005
TXBP                              00000004
TXBnIE                            00000004
TXBnIF                            00000004
TXBnIP                            00000004
TXCKP                             00000004
TXD8                              00000000
TXEN                              00000005
TXEN1                             00000005
TXEN2                             00000005
TXERR                             00000004
TXERRCNT                          00000E42
TXIE                              00000004
TXIF                              00000004
TXIP                              00000004
TXLARB                            00000005
TXPRI0                            00000000
TXPRI1                            00000001
TXREG                             00000FAD
TXREG1                            00000FAD
TXREG2                            00000F79
TXREQ                             00000003
TXRTR                             00000006
TXSTA                             00000FAC
TXSTA1                            00000FAC
TXSTA2                            00000FBA
TXWARN                            00000002
U1OD                              00000000
U2OD                              00000001
UA                                00000001
UART1MD                           00000001
UART2MD                           00000002
ULPEN                             00000002
ULPLVL                            00000005
ULPSINK                           00000001
VCFG0                             00000004
gpasm-1.4.0 #1107 (Nov  3 2014) pic18f26k80.a   11-6-2014  18:33:50         PAGE 44


SYMBOL TABLE
  LABEL                             VALUE 

VCFG1                             00000005
VDIRMAG                           00000007
VNCFG                             00000003
W                                 00000000
WAKDIS                            00000007
WAKFIL                            00000006
WAKIE                             00000006
WAKIF                             00000006
WAKIP                             00000006
WCOL                              00000007
WDTCON                            00000FD1
WIN0                              00000001
WIN0_FP1                          00000001
WIN1                              00000002
WIN1_FP2                          00000002
WIN2                              00000003
WIN2_FP3                          00000003
WPUB                              00000F5B
WPUB0                             00000000
WPUB1                             00000001
WPUB2                             00000002
WPUB3                             00000003
WPUB4                             00000004
WPUB5                             00000005
WPUB6                             00000006
WPUB7                             00000007
WR                                00000001
WREG                              00000FE8
WREN                              00000002
WRERR                             00000003
WUE                               00000001
Z                                 00000002
_BBSIZ_BB1K_4L                    000000EF
_BBSIZ_BB2K_4L                    000000FF
_BOREN_NOSLP_2L                   000000FD
_BOREN_OFF_2L                     000000F9
_BOREN_ON_2L                      000000FB
_BOREN_SBORDIS_2L                 000000FF
_BORPWR_HIGH_2L                   000000DF
_BORPWR_LOW_2L                    0000009F
_BORPWR_MEDIUM_2L                 000000BF
_BORPWR_ZPBORMV_2L                000000FF
_BORV_0_2L                        000000E7
_BORV_1_2L                        000000EF
_BORV_2_2L                        000000F7
_BORV_3_2L                        000000FF
_CANMX_PORTB_3H                   000000FF
_CANMX_PORTC_3H                   000000FE
_CONFIG1H                         00300001
_CONFIG1L                         00300000
_CONFIG2H                         00300003
_CONFIG2L                         00300002
_CONFIG3H                         00300005
gpasm-1.4.0 #1107 (Nov  3 2014) pic18f26k80.a   11-6-2014  18:33:50         PAGE 45


SYMBOL TABLE
  LABEL                             VALUE 

_CONFIG4L                         00300006
_CONFIG5H                         00300009
_CONFIG5L                         00300008
_CONFIG6H                         0030000B
_CONFIG6L                         0030000A
_CONFIG7H                         0030000D
_CONFIG7L                         0030000C
_CP0_OFF_5L                       000000FF
_CP0_ON_5L                        000000FE
_CP1_OFF_5L                       000000FF
_CP1_ON_5L                        000000FD
_CP2_OFF_5L                       000000FF
_CP2_ON_5L                        000000FB
_CP3_OFF_5L                       000000FF
_CP3_ON_5L                        000000F7
_CPB_OFF_5H                       000000FF
_CPB_ON_5H                        000000BF
_CPD_OFF_5H                       000000FF
_CPD_ON_5H                        0000007F
_DEVID1                           003FFFFE
_DEVID2                           003FFFFF
_EBTR0_OFF_7L                     000000FF
_EBTR0_ON_7L                      000000FE
_EBTR1_OFF_7L                     000000FF
_EBTR1_ON_7L                      000000FD
_EBTR2_OFF_7L                     000000FF
_EBTR2_ON_7L                      000000FB
_EBTR3_OFF_7L                     000000FF
_EBTR3_ON_7L                      000000F7
_EBTRB_OFF_7H                     000000FF
_EBTRB_ON_7H                      000000BF
_FCMEN_OFF_1H                     000000BF
_FCMEN_ON_1H                      000000FF
_FOSC_EC1IO_1H                    000000FC
_FOSC_EC1_1H                      000000FD
_FOSC_EC2IO_1H                    000000FA
_FOSC_EC2_1H                      000000FB
_FOSC_EC3IO_1H                    000000F4
_FOSC_EC3_1H                      000000F5
_FOSC_HS1_1H                      000000F3
_FOSC_HS2_1H                      000000F2
_FOSC_INTIO1_1H                   000000F9
_FOSC_INTIO2_1H                   000000F8
_FOSC_LP_1H                       000000F0
_FOSC_RCIO_1H                     000000F7
_FOSC_RC_1H                       000000F6
_FOSC_XT_1H                       000000F1
_IDLOC0                           00200000
_IDLOC1                           00200001
_IDLOC2                           00200002
_IDLOC3                           00200003
_IDLOC4                           00200004
_IDLOC5                           00200005
gpasm-1.4.0 #1107 (Nov  3 2014) pic18f26k80.a   11-6-2014  18:33:50         PAGE 46


SYMBOL TABLE
  LABEL                             VALUE 

_IDLOC6                           00200006
_IDLOC7                           00200007
_IESO_OFF_1H                      0000007F
_IESO_ON_1H                       000000FF
_INTOSCSEL_HIGH_1L                000000FF
_INTOSCSEL_LOW_1L                 000000FB
_MCLRE_OFF_3H                     0000007F
_MCLRE_ON_3H                      000000FF
_MSSPMSK_MSK5_3H                  000000F7
_MSSPMSK_MSK7_3H                  000000FF
_PLLCFG_OFF_1H                    000000EF
_PLLCFG_ON_1H                     000000FF
_PWRTEN_OFF_2L                    000000FF
_PWRTEN_ON_2L                     000000FE
_RETEN_OFF_1L                     000000FF
_RETEN_ON_1L                      000000FE
_SOSCSEL_DIG_1L                   000000F7
_SOSCSEL_HIGH_1L                  000000FF
_SOSCSEL_LOW_1L                   000000EF
_STVREN_OFF_4L                    000000FE
_STVREN_ON_4L                     000000FF
_WDTEN_NOSLP_2H                   000000FD
_WDTEN_OFF_2H                     000000FC
_WDTEN_ON_2H                      000000FE
_WDTEN_SWDTDIS_2H                 000000FF
_WDTPS_1024_2H                    000000AB
_WDTPS_1048576_2H                 000000FF
_WDTPS_128_2H                     0000009F
_WDTPS_131072_2H                  000000C7
_WDTPS_16384_2H                   000000BB
_WDTPS_16_2H                      00000093
_WDTPS_1_2H                       00000083
_WDTPS_2048_2H                    000000AF
_WDTPS_256_2H                     000000A3
_WDTPS_262144_2H                  000000CB
_WDTPS_2_2H                       00000087
_WDTPS_32768_2H                   000000BF
_WDTPS_32_2H                      00000097
_WDTPS_4096_2H                    000000B3
_WDTPS_4_2H                       0000008B
_WDTPS_512_2H                     000000A7
_WDTPS_524288_2H                  000000CF
_WDTPS_64_2H                      0000009B
_WDTPS_65536_2H                   000000C3
_WDTPS_8192_2H                    000000B7
_WDTPS_8_2H                       0000008F
_WRT0_OFF_6L                      000000FF
_WRT0_ON_6L                       000000FE
_WRT1_OFF_6L                      000000FF
_WRT1_ON_6L                       000000FD
_WRT2_OFF_6L                      000000FF
_WRT2_ON_6L                       000000FB
_WRT3_OFF_6L                      000000FF
gpasm-1.4.0 #1107 (Nov  3 2014) pic18f26k80.a   11-6-2014  18:33:50         PAGE 47


SYMBOL TABLE
  LABEL                             VALUE 

_WRT3_ON_6L                       000000F7
_WRTB_OFF_6H                      000000FF
_WRTB_ON_6H                       000000BF
_WRTC_OFF_6H                      000000FF
_WRTC_ON_6H                       000000DF
_WRTD_OFF_6H                      000000FF
_WRTD_ON_6H                       0000007F
_XINST_OFF_1L                     000000BF
_XINST_ON_1L                      000000FF
__18F26K80                        00000001
__ACC_RAM_LOW_END                 0000005F
__CODE_END                        0000FFFF
__CODE_START                      00000000
__EEPROM_END                      00F003FF
__EEPROM_START                    00F00000
__VECTOR_INT_HIGH                 00000008
__VECTOR_INT_LOW                  00000018
__VECTOR_RESET                    00000000


MEMORY USAGE MAP ('X' = Used,  '-' = Unused)

0000 : XXXXXXXXXXXXXXXX XXXXXXXXXXXXXXXX ---------------- ----------------
0000 : XXXXXXXXXXXXX--- ---------------- ---------------- ----------------

All other memory blocks unused.

Program Memory Bytes Used:    45
Program Memory Bytes Free: 65491


Errors   :     0
Warnings :     0 reported,     0 suppressed
Messages :     7 reported,     3 suppressed

